target datalayout = "e-m:e-p270:32:32-p271:32:32-p272:64:64-i64:64-i128:128-f80:128-n8:16:32:64-S128"
target triple = "x86_64-pc-linux-gnu"

%struct.cli_crt_t = type { ptr, [64 x i8], [64 x i8], [64 x i8], [20 x i8], [20 x i8], [20 x i8], i32, [64 x i8], ptr, ptr, ptr, i64, i64, i32, i32, i32, i32, i32, ptr, ptr }

; Function Attrs: nounwind uwtable
define void @cli_crt_clear(ptr noundef %0) #0 {
  %2 = alloca ptr, align 8
  store ptr %0, ptr %2, align 8
  %3 = load ptr, ptr %2, align 8
  %4 = getelementptr inbounds %struct.cli_crt_t, ptr %3, i32 0, i32 9
  %5 = load ptr, ptr %4, align 8
  call void @BN_free(ptr noundef %5)
  %6 = load ptr, ptr %2, align 8
  %7 = getelementptr inbounds %struct.cli_crt_t, ptr %6, i32 0, i32 10
  %8 = load ptr, ptr %7, align 8
  call void @BN_free(ptr noundef %8)
  %9 = load ptr, ptr %2, align 8
  %10 = getelementptr inbounds %struct.cli_crt_t, ptr %9, i32 0, i32 11
  %11 = load ptr, ptr %10, align 8
  call void @BN_free(ptr noundef %11)
  %12 = load ptr, ptr %2, align 8
  %13 = getelementptr inbounds %struct.cli_crt_t, ptr %12, i32 0, i32 9
  store ptr null, ptr %13, align 8
  %14 = load ptr, ptr %2, align 8
  %15 = getelementptr inbounds %struct.cli_crt_t, ptr %14, i32 0, i32 10
  store ptr null, ptr %15, align 8
  %16 = load ptr, ptr %2, align 8
  %17 = getelementptr inbounds %struct.cli_crt_t, ptr %16, i32 0, i32 11
  store ptr null, ptr %17, align 8
  ret void
}