; Function Attrs: nounwind uwtable
define void @cli_crt_clear(ptr nocapture noundef %0) local_unnamed_addr #0 {
  %2 = getelementptr inbounds i8, ptr %0, i64 328
  %3 = load ptr, ptr %2, align 8
  tail call void @BN_free(ptr noundef %3) #10
  %4 = getelementptr inbounds i8, ptr %0, i64 336
  %5 = load ptr, ptr %4, align 8
  tail call void @BN_free(ptr noundef %5) #10
  %6 = getelementptr inbounds i8, ptr %0, i64 344
  %7 = load ptr, ptr %6, align 8
  tail call void @BN_free(ptr noundef %7) #10
  tail call void @llvm.memset.p0.i64(ptr noundef nonnull align 8 dereferenceable(24) %2, i8 0, i64 24, i1 false)
  ret void
}